target datalayout = "e-m:e-p270:32:32-p271:32:32-p272:64:64-i64:64-i128:128-f80:128-n8:16:32:64-S128"
target triple = "x86_64-pc-linux-gnu"

%"struct.cv::detail::CameraParams" = type { double, double, double, double, %"class.cv::Mat", %"class.cv::Mat" }
%"class.cv::Mat" = type { i32, i32, i32, i32, ptr, ptr, ptr, ptr, ptr, ptr, %"struct.cv::MatSize", %"struct.cv::MatStep" }
%"struct.cv::MatSize" = type { ptr }
%"struct.cv::MatStep" = type { ptr, [2 x i64] }
%"class.cv::detail::Estimator" = type { ptr }
%"class.cv::Size_" = type { i32, i32 }
%"struct.std::_Vector_base.11" = type { %"struct.std::_Vector_base<cv::detail::CameraParams, std::allocator<cv::detail::CameraParams>>::_Vector_impl" }
%"struct.std::_Vector_base<cv::detail::CameraParams, std::allocator<cv::detail::CameraParams>>::_Vector_impl" = type { %"struct.std::_Vector_base<cv::detail::CameraParams, std::allocator<cv::detail::CameraParams>>::_Vector_impl_data" }
%"struct.std::_Vector_base<cv::detail::CameraParams, std::allocator<cv::detail::CameraParams>>::_Vector_impl_data" = type { ptr, ptr, ptr }
%"class.cv::MatExpr" = type { ptr, i32, %"class.cv::Mat", %"class.cv::Mat", %"class.cv::Mat", double, double, %"class.cv::Scalar_" }
%"class.cv::Scalar_" = type { %"class.cv::Vec" }
%"class.cv::Vec" = type { %"class.cv::Matx" }
%"class.cv::Matx" = type { [4 x double] }
%"class.cv::detail::BundleAdjusterBase" = type { %"class.cv::detail::Estimator", %"class.cv::Mat", i32, i32, i32, i32, ptr, ptr, double, %"class.cv::TermCriteria", %"class.cv::Mat", %"class.std::vector.30" }
%"class.cv::TermCriteria" = type { i32, i32, double }
%"class.std::vector.30" = type { %"struct.std::_Vector_base.31" }
%"struct.std::_Vector_base.31" = type { %"struct.std::_Vector_base<std::pair<int, int>, std::allocator<std::pair<int, int>>>::_Vector_impl" }
%"struct.std::_Vector_base<std::pair<int, int>, std::allocator<std::pair<int, int>>>::_Vector_impl" = type { %"struct.std::_Vector_base<std::pair<int, int>, std::allocator<std::pair<int, int>>>::_Vector_impl_data" }
%"struct.std::_Vector_base<std::pair<int, int>, std::allocator<std::pair<int, int>>>::_Vector_impl_data" = type { ptr, ptr, ptr }
%"class.cv::_InputArray" = type { i32, ptr, %"class.cv::Size_" }
%"class.cv::_OutputArray" = type { %"class.cv::_InputArray" }
%"class.cv::Range" = type { i32, i32 }

; Function Attrs: inlinehint mustprogress nounwind uwtable
define linkonce_odr hidden void @_ZN2cv5Size_IiEC2Ev(ptr noundef nonnull align 4 dereferenceable(8) %0) unnamed_addr #7 comdat align 2 {
  %2 = alloca ptr, align 8
  store ptr %0, ptr %2, align 8, !tbaa !409
  %3 = load ptr, ptr %2, align 8
  %4 = getelementptr inbounds nuw %"class.cv::Size_", ptr %3, i32 0, i32 0
  store i32 0, ptr %4, align 4, !tbaa !411
  %5 = getelementptr inbounds nuw %"class.cv::Size_", ptr %3, i32 0, i32 1
  store i32 0, ptr %5, align 4, !tbaa !412
  ret void
}

; Function Attrs: inlinehint mustprogress nounwind uwtable
define linkonce_odr hidden void @_ZN2cv11_InputArray4initEiPKv(ptr noundef nonnull align 8 dereferenceable(24) %0, i32 noundef %1, ptr noundef %2) #7 comdat align 2 {
  %4 = alloca ptr, align 8
  %5 = alloca i32, align 4
  %6 = alloca ptr, align 8
  store ptr %0, ptr %4, align 8, !tbaa !194
  store i32 %1, ptr %5, align 4, !tbaa !14
  store ptr %2, ptr %6, align 8, !tbaa !403
  %7 = load ptr, ptr %4, align 8
  %8 = load i32, ptr %5, align 4, !tbaa !14
  %9 = getelementptr inbounds nuw %"class.cv::_InputArray", ptr %7, i32 0, i32 0
  store i32 %8, ptr %9, align 8, !tbaa !413
  %10 = load ptr, ptr %6, align 8, !tbaa !403
  %11 = getelementptr inbounds nuw %"class.cv::_InputArray", ptr %7, i32 0, i32 1
  store ptr %10, ptr %11, align 8, !tbaa !415
  ret void
}

; Function Attrs: inlinehint mustprogress uwtable
define linkonce_odr hidden void @_ZN2cv11_InputArrayC2Ev(ptr noundef nonnull align 8 dereferenceable(24) %0) unnamed_addr #9 comdat align 2 {
  %2 = alloca ptr, align 8
  store ptr %0, ptr %2, align 8, !tbaa !194
  %3 = load ptr, ptr %2, align 8
  %4 = getelementptr inbounds nuw %"class.cv::_InputArray", ptr %3, i32 0, i32 2
  call void @_ZN2cv5Size_IiEC2Ev(ptr noundef nonnull align 4 dereferenceable(8) %4)
  call void @_ZN2cv11_InputArray4initEiPKv(ptr noundef nonnull align 8 dereferenceable(24) %3, i32 noundef 0, ptr noundef null)
  ret void
}

; Function Attrs: inlinehint mustprogress uwtable
define linkonce_odr hidden i64 @_ZN2cv5Range3allEv() #9 comdat align 2 {
  %1 = alloca %"class.cv::Range", align 4
  call void @_ZN2cv5RangeC2Eii(ptr noundef nonnull align 4 dereferenceable(8) %1, i32 noundef -2147483648, i32 noundef 2147483647)
  %2 = load i64, ptr %1, align 4
  ret i64 %2
}

; Function Attrs: inlinehint mustprogress nounwind uwtable
define linkonce_odr hidden void @_ZN2cv5RangeC2Eii(ptr noundef nonnull align 4 dereferenceable(8) %0, i32 noundef %1, i32 noundef %2) unnamed_addr #7 comdat align 2 {
  %4 = alloca ptr, align 8
  %5 = alloca i32, align 4
  %6 = alloca i32, align 4
  store ptr %0, ptr %4, align 8, !tbaa !256
  store i32 %1, ptr %5, align 4, !tbaa !14
  store i32 %2, ptr %6, align 4, !tbaa !14
  %7 = load ptr, ptr %4, align 8
  %8 = getelementptr inbounds nuw %"class.cv::Range", ptr %7, i32 0, i32 0
  %9 = load i32, ptr %5, align 4, !tbaa !14
  store i32 %9, ptr %8, align 4, !tbaa !258
  %10 = getelementptr inbounds nuw %"class.cv::Range", ptr %7, i32 0, i32 1
  %11 = load i32, ptr %6, align 4, !tbaa !14
  store i32 %11, ptr %10, align 4, !tbaa !260
  ret void
}

; Function Attrs: inlinehint mustprogress nounwind uwtable
define linkonce_odr hidden void @_ZN2cv11_InputArrayD2Ev(ptr noundef nonnull align 8 dereferenceable(24) %0) unnamed_addr #7 comdat align 2 {
  %2 = alloca ptr, align 8
  store ptr %0, ptr %2, align 8, !tbaa !194
  ret void
}

; Function Attrs: inlinehint mustprogress uwtable
define linkonce_odr hidden void @_ZN2cv12_OutputArrayC2ERKNS_3MatE(ptr noundef nonnull align 8 dereferenceable(24) %0, ptr noundef nonnull align 8 dereferenceable(96) %1) unnamed_addr #9 comdat align 2 {
  %3 = alloca ptr, align 8
  %4 = alloca ptr, align 8
  store ptr %0, ptr %3, align 8, !tbaa !197
  store ptr %1, ptr %4, align 8, !tbaa !165
  %5 = load ptr, ptr %3, align 8
  call void @_ZN2cv11_InputArrayC2Ev(ptr noundef nonnull align 8 dereferenceable(24) %5)
  %6 = load ptr, ptr %4, align 8, !tbaa !165
  call void @_ZN2cv11_InputArray4initEiPKv(ptr noundef nonnull align 8 dereferenceable(24) %5, i32 noundef -1040121856, ptr noundef %6)
  ret void
}

; Function Attrs: inlinehint mustprogress uwtable
define linkonce_odr hidden void @_ZNK2cv3Mat8rowRangeEii(ptr dead_on_unwind noalias writable sret(%"class.cv::Mat") align 8 %0, ptr noundef nonnull align 8 dereferenceable(96) %1, i32 noundef %2, i32 noundef %3) #9 comdat align 2 {
  %5 = alloca ptr, align 8
  %6 = alloca ptr, align 8
  %7 = alloca i32, align 4
  %8 = alloca i32, align 4
  %9 = alloca %"class.cv::Range", align 4
  %10 = alloca %"class.cv::Range", align 4
  store ptr %0, ptr %5, align 8
  store ptr %1, ptr %6, align 8, !tbaa !165
  store i32 %2, ptr %7, align 4, !tbaa !14
  store i32 %3, ptr %8, align 4, !tbaa !14
  %11 = load ptr, ptr %6, align 8
  call void @llvm.lifetime.start.p0(i64 8, ptr %9) #3
  %12 = load i32, ptr %7, align 4, !tbaa !14
  %13 = load i32, ptr %8, align 4, !tbaa !14
  call void @_ZN2cv5RangeC2Eii(ptr noundef nonnull align 4 dereferenceable(8) %9, i32 noundef %12, i32 noundef %13)
  call void @llvm.lifetime.start.p0(i64 8, ptr %10) #3
  %14 = call i64 @_ZN2cv5Range3allEv()
  store i64 %14, ptr %10, align 4
  call void @_ZN2cv3MatC1ERKS0_RKNS_5RangeES5_(ptr noundef nonnull align 8 dereferenceable(96) %0, ptr noundef nonnull align 8 dereferenceable(96) %11, ptr noundef nonnull align 4 dereferenceable(8) %9, ptr noundef nonnull align 4 dereferenceable(8) %10)
  call void @llvm.lifetime.end.p0(i64 8, ptr %10) #3
  call void @llvm.lifetime.end.p0(i64 8, ptr %9) #3
  ret void
}

; Function Attrs: inlinehint mustprogress uwtable
define linkonce_odr hidden noundef nonnull align 8 dereferenceable(96) ptr @_ZN2cv3MataSERKNS_7MatExprE(ptr noundef nonnull align 8 dereferenceable(96) %0, ptr noundef nonnull align 8 dereferenceable(352) %1) #9 comdat align 2 {
  %3 = alloca ptr, align 8
  %4 = alloca ptr, align 8
  store ptr %0, ptr %3, align 8, !tbaa !165
  store ptr %1, ptr %4, align 8, !tbaa !180
  %5 = load ptr, ptr %3, align 8
  %6 = load ptr, ptr %4, align 8, !tbaa !180
  %7 = getelementptr inbounds nuw %"class.cv::MatExpr", ptr %6, i32 0, i32 0
  %8 = load ptr, ptr %7, align 8, !tbaa !182
  %9 = load ptr, ptr %4, align 8, !tbaa !180
  %10 = load ptr, ptr %8, align 8, !tbaa !133
  %11 = getelementptr inbounds ptr, ptr %10, i64 3
  %12 = load ptr, ptr %11, align 8
  call void %12(ptr noundef nonnull align 8 dereferenceable(8) %8, ptr noundef nonnull align 8 dereferenceable(352) %9, ptr noundef nonnull align 8 dereferenceable(96) %5, i32 noundef -1)
  ret ptr %5
}

; Function Attrs: mustprogress nounwind uwtable
define linkonce_odr hidden noundef nonnull align 8 dereferenceable(224) ptr @_ZNSt6vectorIN2cv6detail12CameraParamsESaIS2_EEixEm(ptr noundef nonnull align 8 dereferenceable(24) %0, i64 noundef %1) #6 comdat align 2 {
  %3 = alloca ptr, align 8
  %4 = alloca i64, align 8
  store ptr %0, ptr %3, align 8, !tbaa !12
  store i64 %1, ptr %4, align 8, !tbaa !58
  %5 = load ptr, ptr %3, align 8
  %6 = getelementptr inbounds nuw %"struct.std::_Vector_base.11", ptr %5, i32 0, i32 0
  %7 = getelementptr inbounds nuw %"struct.std::_Vector_base<cv::detail::CameraParams, std::allocator<cv::detail::CameraParams>>::_Vector_impl_data", ptr %6, i32 0, i32 0
  %8 = load ptr, ptr %7, align 8, !tbaa !64
  %9 = load i64, ptr %4, align 8, !tbaa !58
  %10 = getelementptr inbounds nuw %"struct.cv::detail::CameraParams", ptr %8, i64 %9
  ret ptr %10
}

; Function Attrs: mustprogress uwtable
define void @_ZNK2cv6detail20BundleAdjusterAffine25obtainRefinedCameraParamsERSt6vectorINS0_12CameraParamsESaIS3_EE(ptr noundef nonnull align 8 dereferenceable(472) %0, ptr noundef nonnull align 8 dereferenceable(24) %1) unnamed_addr #4 align 2 personality ptr @__gxx_personality_v0 {
  %3 = alloca ptr, align 8
  %4 = alloca ptr, align 8
  %5 = alloca i32, align 4
  %6 = alloca %"class.cv::MatExpr", align 8
  %7 = alloca ptr, align 8
  %8 = alloca i32, align 4
  %9 = alloca %"class.cv::Mat", align 8
  %10 = alloca %"class.cv::Mat", align 8
  %11 = alloca %"class.cv::_OutputArray", align 8
  %12 = alloca %"class.cv::Mat", align 8
  store ptr %0, ptr %3, align 8, !tbaa !239
  store ptr %1, ptr %4, align 8, !tbaa !12
  %13 = load ptr, ptr %3, align 8
  call void @llvm.lifetime.start.p0(i64 4, ptr %5) #3
  store i32 0, ptr %5, align 4, !tbaa !14
  br label %14

14:                                               ; preds = %43, %2
  %15 = load i32, ptr %5, align 4, !tbaa !14
  %16 = getelementptr inbounds nuw %"class.cv::detail::BundleAdjusterBase", ptr %13, i32 0, i32 2
  %17 = load i32, ptr %16, align 8, !tbaa !123
  %18 = icmp slt i32 %15, %17
  br i1 %18, label %20, label %19

19:                                               ; preds = %14
  call void @llvm.lifetime.end.p0(i64 4, ptr %5) #3
  br label %70

20:                                               ; preds = %14
  call void @llvm.lifetime.start.p0(i64 352, ptr %6) #3
  call void @_ZN2cv3Mat3eyeEiii(ptr dead_on_unwind writable sret(%"class.cv::MatExpr") align 8 %6, i32 noundef 3, i32 noundef 3, i32 noundef 5)
  %21 = load ptr, ptr %4, align 8, !tbaa !12
  %22 = load i32, ptr %5, align 4, !tbaa !14
  %23 = sext i32 %22 to i64
  %24 = call noundef nonnull align 8 dereferenceable(224) ptr @_ZNSt6vectorIN2cv6detail12CameraParamsESaIS2_EEixEm(ptr noundef nonnull align 8 dereferenceable(24) %21, i64 noundef %23) #3
  %25 = getelementptr inbounds nuw %"struct.cv::detail::CameraParams", ptr %24, i32 0, i32 4
  %26 = invoke noundef nonnull align 8 dereferenceable(96) ptr @_ZN2cv3MataSERKNS_7MatExprE(ptr noundef nonnull align 8 dereferenceable(96) %25, ptr noundef nonnull align 8 dereferenceable(352) %6)
          to label %27 unwind label %46

27:                                               ; preds = %20
  call void @_ZN2cv7MatExprD2Ev(ptr noundef nonnull align 8 dereferenceable(352) %6) #3
  call void @llvm.lifetime.end.p0(i64 352, ptr %6) #3
  call void @llvm.lifetime.start.p0(i64 96, ptr %9) #3
  call void @llvm.lifetime.start.p0(i64 96, ptr %10) #3
  %28 = getelementptr inbounds nuw %"class.cv::detail::BundleAdjusterBase", ptr %13, i32 0, i32 10
  %29 = load i32, ptr %5, align 4, !tbaa !14
  %30 = mul nsw i32 %29, 6
  %31 = load i32, ptr %5, align 4, !tbaa !14
  %32 = mul nsw i32 %31, 6
  %33 = add nsw i32 %32, 6
  call void @_ZNK2cv3Mat8rowRangeEii(ptr dead_on_unwind writable sret(%"class.cv::Mat") align 8 %10, ptr noundef nonnull align 8 dereferenceable(96) %28, i32 noundef %30, i32 noundef %33)
  invoke void @_ZNK2cv3Mat7reshapeEii(ptr dead_on_unwind writable sret(%"class.cv::Mat") align 8 %9, ptr noundef nonnull align 8 dereferenceable(96) %10, i32 noundef 1, i32 noundef 2)
          to label %34 unwind label %50

34:                                               ; preds = %27
  call void @_ZN2cv3MatD1Ev(ptr noundef nonnull align 8 dereferenceable(96) %10) #3
  call void @llvm.lifetime.end.p0(i64 96, ptr %10) #3
  call void @llvm.lifetime.start.p0(i64 24, ptr %11) #3
  call void @llvm.lifetime.start.p0(i64 96, ptr %12) #3
  %35 = load ptr, ptr %4, align 8, !tbaa !12
  %36 = load i32, ptr %5, align 4, !tbaa !14
  %37 = sext i32 %36 to i64
  %38 = call noundef nonnull align 8 dereferenceable(224) ptr @_ZNSt6vectorIN2cv6detail12CameraParamsESaIS2_EEixEm(ptr noundef nonnull align 8 dereferenceable(24) %35, i64 noundef %37) #3
  %39 = getelementptr inbounds nuw %"struct.cv::detail::CameraParams", ptr %38, i32 0, i32 4
  invoke void @_ZNK2cv3Mat8rowRangeEii(ptr dead_on_unwind writable sret(%"class.cv::Mat") align 8 %12, ptr noundef nonnull align 8 dereferenceable(96) %39, i32 noundef 0, i32 noundef 2)
          to label %40 unwind label %54

40:                                               ; preds = %34
  invoke void @_ZN2cv12_OutputArrayC2ERKNS_3MatE(ptr noundef nonnull align 8 dereferenceable(24) %11, ptr noundef nonnull align 8 dereferenceable(96) %12)
          to label %41 unwind label %58

41:                                               ; preds = %40
  invoke void @_ZNK2cv3Mat9convertToERKNS_12_OutputArrayEidd(ptr noundef nonnull align 8 dereferenceable(96) %9, ptr noundef nonnull align 8 dereferenceable(24) %11, i32 noundef 5, double noundef 1.000000e+00, double noundef 0.000000e+00)
          to label %42 unwind label %62

42:                                               ; preds = %41
  call void @_ZN2cv11_InputArrayD2Ev(ptr noundef nonnull align 8 dereferenceable(24) %11) #3
  call void @_ZN2cv3MatD1Ev(ptr noundef nonnull align 8 dereferenceable(96) %12) #3
  call void @llvm.lifetime.end.p0(i64 96, ptr %12) #3
  call void @llvm.lifetime.end.p0(i64 24, ptr %11) #3
  call void @_ZN2cv3MatD1Ev(ptr noundef nonnull align 8 dereferenceable(96) %9) #3
  call void @llvm.lifetime.end.p0(i64 96, ptr %9) #3
  br label %43

43:                                               ; preds = %42
  %44 = load i32, ptr %5, align 4, !tbaa !14
  %45 = add nsw i32 %44, 1
  store i32 %45, ptr %5, align 4, !tbaa !14
  br label %14, !llvm.loop !242

46:                                               ; preds = %20
  %47 = landingpad { ptr, i32 }
          cleanup
  %48 = extractvalue { ptr, i32 } %47, 0
  store ptr %48, ptr %7, align 8
  %49 = extractvalue { ptr, i32 } %47, 1
  store i32 %49, ptr %8, align 4
  call void @_ZN2cv7MatExprD2Ev(ptr noundef nonnull align 8 dereferenceable(352) %6) #3
  call void @llvm.lifetime.end.p0(i64 352, ptr %6) #3
  br label %69

50:                                               ; preds = %27
  %51 = landingpad { ptr, i32 }
          cleanup
  %52 = extractvalue { ptr, i32 } %51, 0
  store ptr %52, ptr %7, align 8
  %53 = extractvalue { ptr, i32 } %51, 1
  store i32 %53, ptr %8, align 4
  call void @_ZN2cv3MatD1Ev(ptr noundef nonnull align 8 dereferenceable(96) %10) #3
  call void @llvm.lifetime.end.p0(i64 96, ptr %10) #3
  br label %68

54:                                               ; preds = %34
  %55 = landingpad { ptr, i32 }
          cleanup
  %56 = extractvalue { ptr, i32 } %55, 0
  store ptr %56, ptr %7, align 8
  %57 = extractvalue { ptr, i32 } %55, 1
  store i32 %57, ptr %8, align 4
  br label %67

58:                                               ; preds = %40
  %59 = landingpad { ptr, i32 }
          cleanup
  %60 = extractvalue { ptr, i32 } %59, 0
  store ptr %60, ptr %7, align 8
  %61 = extractvalue { ptr, i32 } %59, 1
  store i32 %61, ptr %8, align 4
  br label %66

62:                                               ; preds = %41
  %63 = landingpad { ptr, i32 }
          cleanup
  %64 = extractvalue { ptr, i32 } %63, 0
  store ptr %64, ptr %7, align 8
  %65 = extractvalue { ptr, i32 } %63, 1
  store i32 %65, ptr %8, align 4
  call void @_ZN2cv11_InputArrayD2Ev(ptr noundef nonnull align 8 dereferenceable(24) %11) #3
  br label %66

66:                                               ; preds = %62, %58
  call void @_ZN2cv3MatD1Ev(ptr noundef nonnull align 8 dereferenceable(96) %12) #3
  br label %67

67:                                               ; preds = %66, %54
  call void @llvm.lifetime.end.p0(i64 96, ptr %12) #3
  call void @llvm.lifetime.end.p0(i64 24, ptr %11) #3
  call void @_ZN2cv3MatD1Ev(ptr noundef nonnull align 8 dereferenceable(96) %9) #3
  br label %68

68:                                               ; preds = %67, %50
  call void @llvm.lifetime.end.p0(i64 96, ptr %9) #3
  br label %69

69:                                               ; preds = %68, %46
  call void @llvm.lifetime.end.p0(i64 4, ptr %5) #3
  br label %71

70:                                               ; preds = %19
  ret void

71:                                               ; preds = %69
  %72 = load ptr, ptr %7, align 8
  %73 = load i32, ptr %8, align 4
  %74 = insertvalue { ptr, i32 } poison, ptr %72, 0
  %75 = insertvalue { ptr, i32 } %74, i32 %73, 1
  resume { ptr, i32 } %75
}