; Function Attrs: mustprogress uwtable
define void @_ZNK2cv6detail20BundleAdjusterAffine25obtainRefinedCameraParamsERSt6vectorINS0_12CameraParamsESaIS3_EE(ptr noundef nonnull align 8 dereferenceable(472) %0, ptr noundef nonnull readonly align 8 captures(none) dereferenceable(24) %1) unnamed_addr #3 align 2 personality ptr @__gxx_personality_v0 {
  %3 = alloca %"class.cv::Range", align 4
  %4 = alloca %"class.cv::Range", align 8
  %5 = alloca %"class.cv::Range", align 4
  %6 = alloca %"class.cv::Range", align 8
  %7 = alloca %"class.cv::MatExpr", align 8
  %8 = alloca %"class.cv::Mat", align 8
  %9 = alloca %"class.cv::Mat", align 8
  %10 = alloca %"class.cv::_OutputArray", align 8
  %11 = alloca %"class.cv::Mat", align 8
  %12 = getelementptr inbounds nuw i8, ptr %0, i64 104
  %13 = load i32, ptr %12, align 8, !tbaa !166
  %14 = icmp sgt i32 %13, 0
  br i1 %14, label %.lr.ph, label %._crit_edge

.lr.ph:                                           ; preds = %2
  %15 = getelementptr inbounds nuw i8, ptr %7, i64 208
  %16 = getelementptr inbounds nuw i8, ptr %7, i64 112
  %17 = getelementptr inbounds nuw i8, ptr %7, i64 16
  %18 = getelementptr inbounds nuw i8, ptr %0, i64 160
  %19 = getelementptr inbounds nuw i8, ptr %5, i64 4
  %20 = getelementptr inbounds nuw i8, ptr %3, i64 4
  %21 = getelementptr inbounds nuw i8, ptr %10, i64 8
  %22 = getelementptr inbounds nuw i8, ptr %10, i64 16
  br label %23

._crit_edge:                                      ; preds = %38, %2
  ret void

23:                                               ; preds = %.lr.ph, %38
  %indvars.iv = phi i64 [ 0, %.lr.ph ], [ %indvars.iv.next, %38 ]
  call void @llvm.lifetime.start.p0(i64 352, ptr nonnull %7) #24
  call void @_ZN2cv3Mat3eyeEiii(ptr dead_on_unwind nonnull writable sret(%"class.cv::MatExpr") align 8 %7, i32 noundef 3, i32 noundef 3, i32 noundef 5)
  %24 = load ptr, ptr %1, align 8, !tbaa !16
  %25 = getelementptr inbounds nuw %"struct.cv::detail::CameraParams", ptr %24, i64 %indvars.iv, i32 4
  %26 = load ptr, ptr %7, align 8, !tbaa !94
  %27 = load ptr, ptr %26, align 8, !tbaa !103
  %28 = getelementptr inbounds nuw i8, ptr %27, i64 24
  %29 = load ptr, ptr %28, align 8
  invoke void %29(ptr noundef nonnull align 8 dereferenceable(8) %26, ptr noundef nonnull align 8 dereferenceable(352) %7, ptr noundef nonnull align 8 dereferenceable(96) %25, i32 noundef -1)
          to label %_ZN2cv3MataSERKNS_7MatExprE.exit unwind label %42

_ZN2cv3MataSERKNS_7MatExprE.exit:                 ; preds = %23
  call void @_ZN2cv3MatD1Ev(ptr noundef nonnull align 8 dereferenceable(96) %15) #24
  call void @_ZN2cv3MatD1Ev(ptr noundef nonnull align 8 dereferenceable(96) %16) #24
  call void @_ZN2cv3MatD1Ev(ptr noundef nonnull align 8 dereferenceable(96) %17) #24
  call void @llvm.lifetime.end.p0(i64 352, ptr nonnull %7) #24
  call void @llvm.lifetime.start.p0(i64 96, ptr nonnull %8) #24
  call void @llvm.lifetime.start.p0(i64 96, ptr nonnull %9) #24
  %30 = mul nuw nsw i64 %indvars.iv, 6
  call void @llvm.lifetime.start.p0(i64 8, ptr nonnull %5) #24, !noalias !298
  %31 = trunc nuw i64 %30 to i32
  store i32 %31, ptr %5, align 4, !tbaa !252, !noalias !298
  %32 = trunc i64 %30 to i32
  %33 = add i32 %32, 6
  store i32 %33, ptr %19, align 4, !tbaa !254, !noalias !298
  call void @llvm.lifetime.start.p0(i64 8, ptr nonnull %6) #24, !noalias !298
  store i64 9223372034707292160, ptr %6, align 8, !noalias !298
  call void @_ZN2cv3MatC1ERKS0_RKNS_5RangeES5_(ptr noundef nonnull align 8 dereferenceable(96) %9, ptr noundef nonnull align 8 dereferenceable(96) %18, ptr noundef nonnull align 4 dereferenceable(8) %5, ptr noundef nonnull align 4 dereferenceable(8) %6)
  call void @llvm.lifetime.end.p0(i64 8, ptr nonnull %6) #24, !noalias !298
  call void @llvm.lifetime.end.p0(i64 8, ptr nonnull %5) #24, !noalias !298
  invoke void @_ZNK2cv3Mat7reshapeEii(ptr dead_on_unwind nonnull writable sret(%"class.cv::Mat") align 8 %8, ptr noundef nonnull align 8 dereferenceable(96) %9, i32 noundef 1, i32 noundef 2)
          to label %34 unwind label %44

34:                                               ; preds = %_ZN2cv3MataSERKNS_7MatExprE.exit
  call void @_ZN2cv3MatD1Ev(ptr noundef nonnull align 8 dereferenceable(96) %9) #24
  call void @llvm.lifetime.end.p0(i64 96, ptr nonnull %9) #24
  call void @llvm.lifetime.start.p0(i64 24, ptr nonnull %10) #24
  call void @llvm.lifetime.start.p0(i64 96, ptr nonnull %11) #24
  %35 = load ptr, ptr %1, align 8, !tbaa !16
  %36 = getelementptr inbounds nuw %"struct.cv::detail::CameraParams", ptr %35, i64 %indvars.iv, i32 4
  call void @llvm.lifetime.start.p0(i64 8, ptr nonnull %3) #24, !noalias !301
  store i32 0, ptr %3, align 4, !tbaa !252, !noalias !301
  store i32 2, ptr %20, align 4, !tbaa !254, !noalias !301
  call void @llvm.lifetime.start.p0(i64 8, ptr nonnull %4) #24, !noalias !301
  store i64 9223372034707292160, ptr %4, align 8, !noalias !301
  invoke void @_ZN2cv3MatC1ERKS0_RKNS_5RangeES5_(ptr noundef nonnull align 8 dereferenceable(96) %11, ptr noundef nonnull align 8 dereferenceable(96) %36, ptr noundef nonnull align 4 dereferenceable(8) %3, ptr noundef nonnull align 4 dereferenceable(8) %4)
          to label %37 unwind label %46

37:                                               ; preds = %34
  call void @llvm.lifetime.end.p0(i64 8, ptr nonnull %4) #24, !noalias !301
  call void @llvm.lifetime.end.p0(i64 8, ptr nonnull %3) #24, !noalias !301
  store i64 0, ptr %22, align 8
  store i32 -1040121856, ptr %10, align 8, !tbaa !106
  store ptr %11, ptr %21, align 8, !tbaa !108
  invoke void @_ZNK2cv3Mat9convertToERKNS_12_OutputArrayEidd(ptr noundef nonnull align 8 dereferenceable(96) %8, ptr noundef nonnull align 8 dereferenceable(24) %10, i32 noundef 5, double noundef 1.000000e+00, double noundef 0.000000e+00)
          to label %38 unwind label %48

38:                                               ; preds = %37
  call void @_ZN2cv3MatD1Ev(ptr noundef nonnull align 8 dereferenceable(96) %11) #24
  call void @llvm.lifetime.end.p0(i64 96, ptr nonnull %11) #24
  call void @llvm.lifetime.end.p0(i64 24, ptr nonnull %10) #24
  call void @_ZN2cv3MatD1Ev(ptr noundef nonnull align 8 dereferenceable(96) %8) #24
  call void @llvm.lifetime.end.p0(i64 96, ptr nonnull %8) #24
  %indvars.iv.next = add nuw nsw i64 %indvars.iv, 1
  %39 = load i32, ptr %12, align 8, !tbaa !166
  %40 = sext i32 %39 to i64
  %41 = icmp slt i64 %indvars.iv.next, %40
  br i1 %41, label %23, label %._crit_edge, !llvm.loop !304

42:                                               ; preds = %23
  %43 = landingpad { ptr, i32 }
          cleanup
  call void @_ZN2cv7MatExprD2Ev(ptr noundef nonnull align 8 dereferenceable(352) %7) #24
  call void @llvm.lifetime.end.p0(i64 352, ptr nonnull %7) #24
  br label %52

44:                                               ; preds = %_ZN2cv3MataSERKNS_7MatExprE.exit
  %45 = landingpad { ptr, i32 }
          cleanup
  call void @_ZN2cv3MatD1Ev(ptr noundef nonnull align 8 dereferenceable(96) %9) #24
  call void @llvm.lifetime.end.p0(i64 96, ptr nonnull %9) #24
  br label %51

46:                                               ; preds = %34
  %47 = landingpad { ptr, i32 }
          cleanup
  br label %50

48:                                               ; preds = %37
  %49 = landingpad { ptr, i32 }
          cleanup
  call void @_ZN2cv3MatD1Ev(ptr noundef nonnull align 8 dereferenceable(96) %11) #24
  br label %50

50:                                               ; preds = %48, %46
  %.pn.pn = phi { ptr, i32 } [ %49, %48 ], [ %47, %46 ]
  call void @llvm.lifetime.end.p0(i64 96, ptr nonnull %11) #24
  call void @llvm.lifetime.end.p0(i64 24, ptr nonnull %10) #24
  call void @_ZN2cv3MatD1Ev(ptr noundef nonnull align 8 dereferenceable(96) %8) #24
  br label %51

51:                                               ; preds = %50, %44
  %.pn.pn.pn = phi { ptr, i32 } [ %.pn.pn, %50 ], [ %45, %44 ]
  call void @llvm.lifetime.end.p0(i64 96, ptr nonnull %8) #24
  br label %52

52:                                               ; preds = %51, %42
  %.pn.pn.pn.pn = phi { ptr, i32 } [ %.pn.pn.pn, %51 ], [ %43, %42 ]
  resume { ptr, i32 } %.pn.pn.pn.pn
}